; Function Attrs: mustprogress uwtable
define hidden void @_ZN11mpf_manager6unpackER3mpfb(ptr noundef nonnull align 8 dereferenceable(840) %this, ptr noundef nonnull align 8 dereferenceable(32) %o, i1 noundef zeroext %normalize) local_unnamed_addr #5 align 2 {
entry:
  %exponent.i.i.i = getelementptr inbounds i8, ptr %o, i64 24
  %0 = load i64, ptr %exponent.i.i.i, align 8
  %bf.load.i.i = load i32, ptr %o, align 8
  %bf.clear.i.i = and i32 %bf.load.i.i, 32767
  %m_mpz_manager.i.i.i = getelementptr inbounds i8, ptr %this, i64 728
  %1 = load ptr, ptr %m_mpz_manager.i.i.i, align 8
  %m_powers2.i.i.i = getelementptr inbounds i8, ptr %this, i64 736
  %sub.i.i.i = add nsw i32 %bf.clear.i.i, -1
  %call.i.i.i = tail call noundef nonnull align 8 dereferenceable(16) ptr @_ZN11mpf_manager7powers22m1Ejb(ptr noundef nonnull align 8 dereferenceable(104) %m_powers2.i.i.i, i32 noundef %sub.i.i.i, i1 noundef zeroext true)
  %call2.i.i.i = tail call noundef i64 @_ZNK11mpz_managerILb0EE9get_int64ERK3mpz(ptr noundef nonnull align 8 dereferenceable(600) %1, ptr noundef nonnull align 8 dereferenceable(16) %call.i.i.i)
  %cmp.i.i = icmp eq i64 %0, %call2.i.i.i
  %significand.i.i = getelementptr inbounds i8, ptr %o, i64 8
  %2 = load i32, ptr %significand.i.i, align 8
  %cmp.i2.i = icmp eq i32 %2, 0
  %3 = select i1 %cmp.i.i, i1 %cmp.i2.i, i1 false
  br i1 %3, label %if.end27, label %if.end

if.end:                                           ; preds = %entry
  %call2 = tail call noundef zeroext i1 @_ZN11mpf_manager9is_normalERK3mpf(ptr noundef nonnull align 8 dereferenceable(840) %this, ptr noundef nonnull align 8 dereferenceable(32) %o)
  br i1 %call2, label %if.then3, label %if.else

if.then3:                                         ; preds = %if.end
  %4 = load ptr, ptr %m_mpz_manager.i.i.i, align 8
  %bf.load = load i32, ptr %o, align 8
  %bf.lshr = lshr i32 %bf.load, 15
  %bf.clear = and i32 %bf.lshr, 65535
  %sub = add nsw i32 %bf.clear, -1
  %call4 = tail call noundef nonnull align 8 dereferenceable(16) ptr @_ZN11mpf_manager7powers2clEjb(ptr noundef nonnull align 8 dereferenceable(104) %m_powers2.i.i.i, i32 noundef %sub, i1 noundef zeroext false)
  tail call void @_ZN11mpz_managerILb0EE3addERK3mpzS3_RS1_(ptr noundef nonnull align 8 dereferenceable(600) %4, ptr noundef nonnull align 8 dereferenceable(16) %significand.i.i, ptr noundef nonnull align 8 dereferenceable(16) %call4, ptr noundef nonnull align 8 dereferenceable(16) %significand.i.i)
  br label %if.end27

if.else:                                          ; preds = %if.end
  %bf.load6 = load i32, ptr %o, align 8
  %bf.clear7 = and i32 %bf.load6, 32767
  %5 = load ptr, ptr %m_mpz_manager.i.i.i, align 8
  %sub.i = add nsw i32 %bf.clear7, -1
  %call.i = tail call noundef nonnull align 8 dereferenceable(16) ptr @_ZN11mpf_manager7powers22m1Ejb(ptr noundef nonnull align 8 dereferenceable(104) %m_powers2.i.i.i, i32 noundef %sub.i, i1 noundef zeroext true)
  %call2.i = tail call noundef i64 @_ZNK11mpz_managerILb0EE9get_int64ERK3mpz(ptr noundef nonnull align 8 dereferenceable(600) %5, ptr noundef nonnull align 8 dereferenceable(16) %call.i)
  %add = add nsw i64 %call2.i, 1
  store i64 %add, ptr %exponent.i.i.i, align 8
  %6 = load i32, ptr %significand.i.i, align 8
  %cmp.i = icmp ne i32 %6, 0
  %or.cond.not = select i1 %normalize, i1 %cmp.i, i1 false
  br i1 %or.cond.not, label %if.then12, label %if.end27

if.then12:                                        ; preds = %if.else
  %bf.load14 = load i32, ptr %o, align 8
  %bf.lshr15 = lshr i32 %bf.load14, 15
  %bf.clear16 = and i32 %bf.lshr15, 65535
  %sub17 = add nsw i32 %bf.clear16, -1
  %call18 = tail call noundef nonnull align 8 dereferenceable(16) ptr @_ZN11mpf_manager7powers2clEjb(ptr noundef nonnull align 8 dereferenceable(104) %m_powers2.i.i.i, i32 noundef %sub17, i1 noundef zeroext false)
  %m_kind.i.i.i = getelementptr inbounds i8, ptr %o, i64 12
  %m_kind.i5.i.i = getelementptr inbounds i8, ptr %call18, i64 4
  br label %while.cond

while.cond:                                       ; preds = %_ZN11mpz_managerILb0EE5mul2kERK3mpzjRS1_.exit, %if.then12
  %7 = load ptr, ptr %m_mpz_manager.i.i.i, align 8
  %bf.load.i.i.i = load i8, ptr %m_kind.i.i.i, align 4
  %bf.clear.i.i.i = and i8 %bf.load.i.i.i, 1
  %cmp.i.i.i = icmp eq i8 %bf.clear.i.i.i, 0
  br i1 %cmp.i.i.i, label %land.lhs.true.i.i, label %_ZN11mpz_managerILb0EE2gtERK3mpzS3_.exit

land.lhs.true.i.i:                                ; preds = %while.cond
  %bf.load.i6.i.i = load i8, ptr %m_kind.i5.i.i, align 4
  %bf.clear.i7.i.i = and i8 %bf.load.i6.i.i, 1
  %cmp.i8.i.i = icmp eq i8 %bf.clear.i7.i.i, 0
  br i1 %cmp.i8.i.i, label %if.then.i.i, label %_ZN11mpz_managerILb0EE2gtERK3mpzS3_.exit

if.then.i.i:                                      ; preds = %land.lhs.true.i.i
  %8 = load i32, ptr %significand.i.i, align 8
  %9 = load i32, ptr %call18, align 8
  %cmp.i.i13 = icmp slt i32 %8, %9
  br i1 %cmp.i.i13, label %while.body, label %if.end27

_ZN11mpz_managerILb0EE2gtERK3mpzS3_.exit:         ; preds = %while.cond, %land.lhs.true.i.i
  %call4.i.i = tail call noundef i32 @_ZN11mpz_managerILb0EE11big_compareERK3mpzS3_(ptr noundef nonnull align 8 dereferenceable(600) %7, ptr noundef nonnull align 8 dereferenceable(16) %significand.i.i, ptr noundef nonnull align 8 dereferenceable(16) %call18)
  %cmp5.i.i = icmp slt i32 %call4.i.i, 0
  br i1 %cmp5.i.i, label %_ZN11mpz_managerILb0EE2gtERK3mpzS3_.exit.while.body_crit_edge, label %if.end27

_ZN11mpz_managerILb0EE2gtERK3mpzS3_.exit.while.body_crit_edge: ; preds = %_ZN11mpz_managerILb0EE2gtERK3mpzS3_.exit
  %bf.load.i.i.i15.pre = load i8, ptr %m_kind.i.i.i, align 4
  br label %while.body

while.body:                                       ; preds = %_ZN11mpz_managerILb0EE2gtERK3mpzS3_.exit.while.body_crit_edge, %if.then.i.i
  %bf.load.i.i.i15 = phi i8 [ %bf.load.i.i.i15.pre, %_ZN11mpz_managerILb0EE2gtERK3mpzS3_.exit.while.body_crit_edge ], [ %bf.load.i.i.i, %if.then.i.i ]
  %10 = load i64, ptr %exponent.i.i.i, align 8
  %dec = add nsw i64 %10, -1
  store i64 %dec, ptr %exponent.i.i.i, align 8
  %11 = load ptr, ptr %m_mpz_manager.i.i.i, align 8
  %bf.clear.i.i.i16 = and i8 %bf.load.i.i.i15, 1
  %cmp.i.i.i17 = icmp eq i8 %bf.clear.i.i.i16, 0
  br i1 %cmp.i.i.i17, label %if.then.i.i19, label %if.else.i.i18

if.then.i.i19:                                    ; preds = %while.body
  store i8 %bf.load.i.i.i15, ptr %m_kind.i.i.i, align 4
  br label %_ZN11mpz_managerILb0EE5mul2kERK3mpzjRS1_.exit

if.else.i.i18:                                    ; preds = %while.body
  tail call void @_ZN11mpz_managerILb0EE7big_setER3mpzRKS1_(ptr noundef nonnull align 8 dereferenceable(600) %11, ptr noundef nonnull align 8 dereferenceable(16) %significand.i.i, ptr noundef nonnull align 8 dereferenceable(16) %significand.i.i)
  br label %_ZN11mpz_managerILb0EE5mul2kERK3mpzjRS1_.exit

_ZN11mpz_managerILb0EE5mul2kERK3mpzjRS1_.exit:    ; preds = %if.then.i.i19, %if.else.i.i18
  tail call void @_ZN11mpz_managerILb0EE5mul2kER3mpzj(ptr noundef nonnull align 8 dereferenceable(600) %11, ptr noundef nonnull align 8 dereferenceable(16) %significand.i.i, i32 noundef 1)
  br label %while.cond, !llvm.loop !7

if.end27:                                         ; preds = %if.then.i.i, %_ZN11mpz_managerILb0EE2gtERK3mpzS3_.exit, %if.else, %entry, %if.then3
  ret void
}